target datalayout = "e-m:e-p270:32:32-p271:32:32-p272:64:64-i64:64-i128:128-f80:128-n8:16:32:64-S128"
target triple = "x86_64-unknown-linux-gnu"

%"class.llvh::SmallVectorBase" = type { ptr, i32, i32 }

; Function Attrs: mustprogress nounwind uwtable
define linkonce_odr hidden noundef i64 @_ZNK4llvh15SmallVectorBase4sizeEv(ptr noundef nonnull align 8 dereferenceable(16) %this) #0 comdat align 2 {
entry:
  %this.addr = alloca ptr, align 8
  store ptr %this, ptr %this.addr, align 8
  %this1 = load ptr, ptr %this.addr, align 8
  %Size = getelementptr inbounds %"class.llvh::SmallVectorBase", ptr %this1, i32 0, i32 1
  %0 = load i32, ptr %Size, align 8
  %conv = zext i32 %0 to i64
  ret i64 %conv
}

; Function Attrs: mustprogress nounwind uwtable
define hidden noundef zeroext i1 @_ZN6hermes17RegisterAllocator27isManuallyAllocatedIntervalEPNS_11InstructionE(ptr noundef nonnull align 8 dereferenceable(1952) %this, ptr noundef %I) #0 align 2 {
entry:
  %this.addr.i.i = alloca ptr, align 8
  %this.addr.i10 = alloca ptr, align 8
  %this.addr.i = alloca ptr, align 8
  %retval = alloca i1, align 1
  %this.addr = alloca ptr, align 8
  %I.addr = alloca ptr, align 8
  %__range1 = alloca ptr, align 8
  %__begin1 = alloca ptr, align 8
  %__end1 = alloca ptr, align 8
  %U = alloca ptr, align 8
  store ptr %this, ptr %this.addr, align 8
  store ptr %I, ptr %I.addr, align 8
  %this1 = load ptr, ptr %this.addr, align 8
  %0 = load ptr, ptr %I.addr, align 8
  %vtable = load ptr, ptr %this1, align 8
  %vfn = getelementptr inbounds ptr, ptr %vtable, i64 2
  %1 = load ptr, ptr %vfn, align 8
  %call = call noundef zeroext i1 %1(ptr noundef nonnull align 8 dereferenceable(1952) %this1, ptr noundef %0)
  br i1 %call, label %if.then, label %if.end

if.then:                                          ; preds = %entry
  store i1 true, ptr %retval, align 1
  br label %return

if.end:                                           ; preds = %entry
  %2 = load ptr, ptr %I.addr, align 8
  %add.ptr = getelementptr inbounds i8, ptr %2, i64 16
  %call2 = call noundef nonnull align 8 dereferenceable(32) ptr @_ZNK6hermes5Value8getUsersEv(ptr noundef nonnull align 8 dereferenceable(40) %add.ptr)
  store ptr %call2, ptr %__range1, align 8
  %3 = load ptr, ptr %__range1, align 8
  store ptr %3, ptr %this.addr.i, align 8
  %this1.i = load ptr, ptr %this.addr.i, align 8
  %4 = load ptr, ptr %this1.i, align 8
  store ptr %4, ptr %__begin1, align 8
  %5 = load ptr, ptr %__range1, align 8
  store ptr %5, ptr %this.addr.i10, align 8
  %this1.i11 = load ptr, ptr %this.addr.i10, align 8
  store ptr %this1.i11, ptr %this.addr.i.i, align 8
  %this1.i.i = load ptr, ptr %this.addr.i.i, align 8
  %6 = load ptr, ptr %this1.i.i, align 8
  %call2.i = call noundef i64 @_ZNK4llvh15SmallVectorBase4sizeEv(ptr noundef nonnull align 8 dereferenceable(16) %this1.i11)
  %add.ptr.i = getelementptr inbounds ptr, ptr %6, i64 %call2.i
  store ptr %add.ptr.i, ptr %__end1, align 8
  br label %for.cond

for.cond:                                         ; preds = %for.inc, %if.end
  %7 = load ptr, ptr %__begin1, align 8
  %8 = load ptr, ptr %__end1, align 8
  %cmp = icmp ne ptr %7, %8
  br i1 %cmp, label %for.body, label %for.end

for.body:                                         ; preds = %for.cond
  %9 = load ptr, ptr %__begin1, align 8
  %10 = load ptr, ptr %9, align 8
  store ptr %10, ptr %U, align 8
  %11 = load ptr, ptr %U, align 8
  %vtable5 = load ptr, ptr %this1, align 8
  %vfn6 = getelementptr inbounds ptr, ptr %vtable5, i64 2
  %12 = load ptr, ptr %vfn6, align 8
  %call7 = call noundef zeroext i1 %12(ptr noundef nonnull align 8 dereferenceable(1952) %this1, ptr noundef %11)
  br i1 %call7, label %if.then8, label %if.end9

if.then8:                                         ; preds = %for.body
  store i1 true, ptr %retval, align 1
  br label %return

if.end9:                                          ; preds = %for.body
  br label %for.inc

for.inc:                                          ; preds = %if.end9
  %13 = load ptr, ptr %__begin1, align 8
  %incdec.ptr = getelementptr inbounds ptr, ptr %13, i32 1
  store ptr %incdec.ptr, ptr %__begin1, align 8
  br label %for.cond

for.end:                                          ; preds = %for.cond
  store i1 false, ptr %retval, align 1
  br label %return

return:                                           ; preds = %for.end, %if.then8, %if.then
  %14 = load i1, ptr %retval, align 1
  ret i1 %14
}