; Function Attrs: mustprogress nounwind uwtable
define hidden noundef zeroext i1 @_ZN6hermes17RegisterAllocator27isManuallyAllocatedIntervalEPNS_11InstructionE(ptr noundef nonnull align 8 dereferenceable(1952) %this, ptr noundef %I) local_unnamed_addr #0 align 2 {
entry:
  %vtable = load ptr, ptr %this, align 8
  %vfn = getelementptr inbounds i8, ptr %vtable, i64 16
  %0 = load ptr, ptr %vfn, align 8
  %call = tail call noundef zeroext i1 %0(ptr noundef nonnull align 8 dereferenceable(1952) %this, ptr noundef %I) #18
  br i1 %call, label %return, label %if.end

if.end:                                           ; preds = %entry
  %add.ptr = getelementptr inbounds i8, ptr %I, i64 16
  %call2 = tail call noundef nonnull align 8 dereferenceable(32) ptr @_ZNK6hermes5Value8getUsersEv(ptr noundef nonnull align 8 dereferenceable(40) %add.ptr) #18
  %1 = load ptr, ptr %call2, align 8
  %Size.i = getelementptr inbounds i8, ptr %call2, i64 8
  %2 = load i32, ptr %Size.i, align 8
  %conv.i = zext i32 %2 to i64
  %add.ptr.i = getelementptr inbounds ptr, ptr %1, i64 %conv.i
  %cmp.not5 = icmp eq i32 %2, 0
  br i1 %cmp.not5, label %return, label %for.body

for.body:                                         ; preds = %if.end, %for.body
  %__begin1.06 = phi ptr [ %incdec.ptr, %for.body ], [ %1, %if.end ]
  %3 = load ptr, ptr %__begin1.06, align 8
  %vtable5 = load ptr, ptr %this, align 8
  %vfn6 = getelementptr inbounds i8, ptr %vtable5, i64 16
  %4 = load ptr, ptr %vfn6, align 8
  %call7 = tail call noundef zeroext i1 %4(ptr noundef nonnull align 8 dereferenceable(1952) %this, ptr noundef %3) #18
  %incdec.ptr = getelementptr inbounds i8, ptr %__begin1.06, i64 8
  %cmp.not = icmp eq ptr %incdec.ptr, %add.ptr.i
  %or.cond = select i1 %call7, i1 true, i1 %cmp.not
  br i1 %or.cond, label %return, label %for.body

return:                                           ; preds = %for.body, %if.end, %entry
  %retval.0 = phi i1 [ true, %entry ], [ false, %if.end ], [ %call7, %for.body ]
  ret i1 %retval.0
}